target datalayout = "e-m:e-p270:32:32-p271:32:32-p272:64:64-i64:64-i128:128-f80:128-n8:16:32:64-S128"
target triple = "x86_64-pc-linux-gnu"

@H5PT_ptable_id_type = internal global i32 -2, align 4
@H5PT_ptable_count = internal global i64 0, align 8

; Function Attrs: nounwind uwtable
define i32 @H5PTclose(i64 noundef %0) #0 {
  %2 = alloca i32, align 4
  %3 = alloca i64, align 8
  %4 = alloca ptr, align 8
  %5 = alloca i32, align 4
  store i64 %0, ptr %3, align 8, !tbaa !3
  call void @llvm.lifetime.start.p0(i64 8, ptr %4) #6
  %6 = load i64, ptr %3, align 8, !tbaa !3
  %7 = load i32, ptr @H5PT_ptable_id_type, align 4, !tbaa !11
  %8 = call ptr @H5Iremove_verify(i64 noundef %6, i32 noundef %7)
  store ptr %8, ptr %4, align 8, !tbaa !10
  %9 = icmp eq ptr %8, null
  br i1 %9, label %10, label %11

10:                                               ; preds = %1
  br label %25

11:                                               ; preds = %1
  %12 = load ptr, ptr %4, align 8, !tbaa !10
  %13 = call i32 @H5PT_close(ptr noundef %12)
  %14 = icmp slt i32 %13, 0
  br i1 %14, label %15, label %16

15:                                               ; preds = %11
  br label %25

16:                                               ; preds = %11
  %17 = load i64, ptr @H5PT_ptable_count, align 8, !tbaa !3
  %18 = add i64 %17, -1
  store i64 %18, ptr @H5PT_ptable_count, align 8, !tbaa !3
  %19 = load i64, ptr @H5PT_ptable_count, align 8, !tbaa !3
  %20 = icmp eq i64 %19, 0
  br i1 %20, label %21, label %24

21:                                               ; preds = %16
  %22 = load i32, ptr @H5PT_ptable_id_type, align 4, !tbaa !11
  %23 = call i32 @H5Idestroy_type(i32 noundef %22)
  store i32 -2, ptr @H5PT_ptable_id_type, align 4, !tbaa !11
  br label %24

24:                                               ; preds = %21, %16
  store i32 0, ptr %2, align 4
  store i32 1, ptr %5, align 4
  br label %26

25:                                               ; preds = %15, %10
  store i32 -1, ptr %2, align 4
  store i32 1, ptr %5, align 4
  br label %26

26:                                               ; preds = %25, %24
  call void @llvm.lifetime.end.p0(i64 8, ptr %4) #6
  %27 = load i32, ptr %2, align 4
  ret i32 %27
}