; Function Attrs: nounwind uwtable
define range(i32 -1, 1) i32 @H5PTclose(i64 noundef %0) local_unnamed_addr #0 {
  %2 = load i32, ptr @H5PT_ptable_id_type, align 4, !tbaa !3
  %3 = tail call ptr @H5Iremove_verify(i64 noundef %0, i32 noundef %2) #7
  %4 = icmp eq ptr %3, null
  br i1 %4, label %15, label %5

5:                                                ; preds = %1
  %6 = tail call fastcc i32 @H5PT_close(ptr noundef %3)
  %7 = icmp slt i32 %6, 0
  br i1 %7, label %15, label %8

8:                                                ; preds = %5
  %9 = load i64, ptr @H5PT_ptable_count, align 8, !tbaa !7
  %10 = add i64 %9, -1
  store i64 %10, ptr @H5PT_ptable_count, align 8, !tbaa !7
  %11 = icmp eq i64 %10, 0
  br i1 %11, label %12, label %15

12:                                               ; preds = %8
  %13 = load i32, ptr @H5PT_ptable_id_type, align 4, !tbaa !3
  %14 = tail call i32 @H5Idestroy_type(i32 noundef %13) #7
  store i32 -2, ptr @H5PT_ptable_id_type, align 4, !tbaa !3
  br label %15

15:                                               ; preds = %1, %5, %8, %12
  %.0 = phi i32 [ 0, %12 ], [ 0, %8 ], [ -1, %5 ], [ -1, %1 ]
  ret i32 %.0
}